target datalayout = "e-m:e-p270:32:32-p271:32:32-p272:64:64-i64:64-i128:128-f80:128-n8:16:32:64-S128"
target triple = "x86_64-pc-linux-gnu"

%"class.rocksdb::Random" = type { i32 }

; Function Attrs: mustprogress nounwind uwtable
define linkonce_odr noundef i32 @_ZN7rocksdb6Random4NextEv(ptr noundef nonnull align 4 dereferenceable(4) %0) #3 comdat align 2 {
  %2 = alloca ptr, align 8
  %3 = alloca i64, align 8
  store ptr %0, ptr %2, align 8, !tbaa !153
  %4 = load ptr, ptr %2, align 8
  call void @llvm.lifetime.start.p0(i64 8, ptr %3) #4
  %5 = getelementptr inbounds nuw %"class.rocksdb::Random", ptr %4, i32 0, i32 0
  %6 = load i32, ptr %5, align 4, !tbaa !480
  %7 = zext i32 %6 to i64
  %8 = mul i64 %7, 16807
  store i64 %8, ptr %3, align 8, !tbaa !4
  %9 = load i64, ptr %3, align 8, !tbaa !4
  %10 = lshr i64 %9, 31
  %11 = load i64, ptr %3, align 8, !tbaa !4
  %12 = and i64 %11, 2147483647
  %13 = add i64 %10, %12
  %14 = trunc i64 %13 to i32
  %15 = getelementptr inbounds nuw %"class.rocksdb::Random", ptr %4, i32 0, i32 0
  store i32 %14, ptr %15, align 4, !tbaa !480
  %16 = getelementptr inbounds nuw %"class.rocksdb::Random", ptr %4, i32 0, i32 0
  %17 = load i32, ptr %16, align 4, !tbaa !480
  %18 = icmp ugt i32 %17, 2147483647
  br i1 %18, label %19, label %23

19:                                               ; preds = %1
  %20 = getelementptr inbounds nuw %"class.rocksdb::Random", ptr %4, i32 0, i32 0
  %21 = load i32, ptr %20, align 4, !tbaa !480
  %22 = sub i32 %21, 2147483647
  store i32 %22, ptr %20, align 4, !tbaa !480
  br label %23

23:                                               ; preds = %19, %1
  %24 = getelementptr inbounds nuw %"class.rocksdb::Random", ptr %4, i32 0, i32 0
  %25 = load i32, ptr %24, align 4, !tbaa !480
  call void @llvm.lifetime.end.p0(i64 8, ptr %3) #4
  ret i32 %25
}

; Function Attrs: mustprogress uwtable
define linkonce_odr noundef i32 @_ZN7rocksdb6Random7UniformEi(ptr noundef nonnull align 4 dereferenceable(4) %0, i32 noundef %1) #5 comdat align 2 {
  %3 = alloca ptr, align 8
  %4 = alloca i32, align 4
  store ptr %0, ptr %3, align 8, !tbaa !153
  store i32 %1, ptr %4, align 4, !tbaa !52
  %5 = load ptr, ptr %3, align 8
  %6 = call noundef i32 @_ZN7rocksdb6Random4NextEv(ptr noundef nonnull align 4 dereferenceable(4) %5)
  %7 = load i32, ptr %4, align 4, !tbaa !52
  %8 = urem i32 %6, %7
  ret i32 %8
}

; Function Attrs: mustprogress uwtable
define noundef ptr @_ZN7rocksdb4test20RandomSliceTransformEPNS_6RandomEi(ptr noundef %0, i32 noundef %1) #5 {
  %3 = alloca ptr, align 8
  %4 = alloca ptr, align 8
  %5 = alloca i32, align 4
  %6 = alloca i32, align 4
  %7 = alloca i32, align 4
  store ptr %0, ptr %4, align 8, !tbaa !153
  store i32 %1, ptr %5, align 4, !tbaa !52
  call void @llvm.lifetime.start.p0(i64 4, ptr %6) #4
  %8 = load i32, ptr %5, align 4, !tbaa !52
  %9 = icmp sge i32 %8, 0
  br i1 %9, label %10, label %12

10:                                               ; preds = %2
  %11 = load i32, ptr %5, align 4, !tbaa !52
  br label %15

12:                                               ; preds = %2
  %13 = load ptr, ptr %4, align 8, !tbaa !153
  %14 = call noundef i32 @_ZN7rocksdb6Random7UniformEi(ptr noundef nonnull align 4 dereferenceable(4) %13, i32 noundef 4)
  br label %15

15:                                               ; preds = %12, %10
  %16 = phi i32 [ %11, %10 ], [ %14, %12 ]
  store i32 %16, ptr %6, align 4, !tbaa !52
  %17 = load i32, ptr %6, align 4, !tbaa !52
  switch i32 %17, label %32 [
    i32 0, label %18
    i32 1, label %24
    i32 2, label %30
  ]

18:                                               ; preds = %15
  %19 = load ptr, ptr %4, align 8, !tbaa !153
  %20 = call noundef i32 @_ZN7rocksdb6Random7UniformEi(ptr noundef nonnull align 4 dereferenceable(4) %19, i32 noundef 20)
  %21 = add i32 %20, 1
  %22 = zext i32 %21 to i64
  %23 = call noundef ptr @_ZN7rocksdb23NewFixedPrefixTransformEm(i64 noundef %22)
  store ptr %23, ptr %3, align 8
  store i32 1, ptr %7, align 4
  br label %33

24:                                               ; preds = %15
  %25 = load ptr, ptr %4, align 8, !tbaa !153
  %26 = call noundef i32 @_ZN7rocksdb6Random7UniformEi(ptr noundef nonnull align 4 dereferenceable(4) %25, i32 noundef 20)
  %27 = add i32 %26, 1
  %28 = zext i32 %27 to i64
  %29 = call noundef ptr @_ZN7rocksdb24NewCappedPrefixTransformEm(i64 noundef %28)
  store ptr %29, ptr %3, align 8
  store i32 1, ptr %7, align 4
  br label %33

30:                                               ; preds = %15
  %31 = call noundef ptr @_ZN7rocksdb16NewNoopTransformEv()
  store ptr %31, ptr %3, align 8
  store i32 1, ptr %7, align 4
  br label %33

32:                                               ; preds = %15
  store ptr null, ptr %3, align 8
  store i32 1, ptr %7, align 4
  br label %33

33:                                               ; preds = %32, %30, %24, %18
  call void @llvm.lifetime.end.p0(i64 4, ptr %6) #4
  %34 = load ptr, ptr %3, align 8
  ret ptr %34
}