; Function Attrs: mustprogress uwtable
define noundef ptr @_ZN7rocksdb4test20RandomSliceTransformEPNS_6RandomEi(ptr noundef captures(none) %0, i32 noundef %1) local_unnamed_addr #7 {
  %3 = icmp sgt i32 %1, -1
  br i1 %3, label %15, label %4

4:                                                ; preds = %2
  %5 = load i32, ptr %0, align 4, !tbaa !45
  %6 = zext i32 %5 to i64
  %7 = mul nuw nsw i64 %6, 16807
  %8 = lshr i64 %7, 31
  %9 = and i64 %7, 2147483647
  %10 = add nuw nsw i64 %8, %9
  %11 = trunc nuw i64 %10 to i32
  %12 = icmp slt i32 %11, 0
  %13 = add i32 %11, -2147483647
  %spec.select.i.i = select i1 %12, i32 %13, i32 %11
  store i32 %spec.select.i.i, ptr %0, align 4, !tbaa !45
  %14 = and i32 %spec.select.i.i, 3
  br label %15

15:                                               ; preds = %2, %4
  %16 = phi i32 [ %14, %4 ], [ %1, %2 ]
  switch i32 %16, label %47 [
    i32 0, label %17
    i32 1, label %31
    i32 2, label %45
  ]

17:                                               ; preds = %15
  %18 = load i32, ptr %0, align 4, !tbaa !45
  %19 = zext i32 %18 to i64
  %20 = mul nuw nsw i64 %19, 16807
  %21 = lshr i64 %20, 31
  %22 = and i64 %20, 2147483647
  %23 = add nuw nsw i64 %21, %22
  %24 = trunc nuw i64 %23 to i32
  %25 = icmp slt i32 %24, 0
  %26 = add i32 %24, -2147483647
  %spec.select.i.i7 = select i1 %25, i32 %26, i32 %24
  store i32 %spec.select.i.i7, ptr %0, align 4, !tbaa !45
  %27 = urem i32 %spec.select.i.i7, 20
  %28 = add nuw nsw i32 %27, 1
  %29 = zext nneg i32 %28 to i64
  %30 = tail call noundef ptr @_ZN7rocksdb23NewFixedPrefixTransformEm(i64 noundef %29)
  br label %47

31:                                               ; preds = %15
  %32 = load i32, ptr %0, align 4, !tbaa !45
  %33 = zext i32 %32 to i64
  %34 = mul nuw nsw i64 %33, 16807
  %35 = lshr i64 %34, 31
  %36 = and i64 %34, 2147483647
  %37 = add nuw nsw i64 %35, %36
  %38 = trunc nuw i64 %37 to i32
  %39 = icmp slt i32 %38, 0
  %40 = add i32 %38, -2147483647
  %spec.select.i.i8 = select i1 %39, i32 %40, i32 %38
  store i32 %spec.select.i.i8, ptr %0, align 4, !tbaa !45
  %41 = urem i32 %spec.select.i.i8, 20
  %42 = add nuw nsw i32 %41, 1
  %43 = zext nneg i32 %42 to i64
  %44 = tail call noundef ptr @_ZN7rocksdb24NewCappedPrefixTransformEm(i64 noundef %43)
  br label %47

45:                                               ; preds = %15
  %46 = tail call noundef ptr @_ZN7rocksdb16NewNoopTransformEv()
  br label %47

47:                                               ; preds = %15, %45, %31, %17
  %.0 = phi ptr [ %46, %45 ], [ %44, %31 ], [ %30, %17 ], [ null, %15 ]
  ret ptr %.0
}